target datalayout = "e-m:e-p270:32:32-p271:32:32-p272:64:64-i64:64-i128:128-f80:128-n8:16:32:64-S128"
target triple = "x86_64-pc-linux-gnu"

%"class.Eigen::Transform" = type { %"class.Eigen::Matrix" }
%"class.Eigen::Matrix" = type { %"class.Eigen::PlainObjectBase" }
%"class.Eigen::PlainObjectBase" = type { %"class.Eigen::DenseStorage" }
%"class.Eigen::DenseStorage" = type { %"struct.Eigen::internal::plain_array" }
%"struct.Eigen::internal::plain_array" = type { [16 x double] }
%"class.g2o::EdgeSE3Prior" = type { %"class.g2o::BaseUnaryEdge", %"class.Eigen::Transform", ptr, ptr }
%"class.g2o::BaseUnaryEdge" = type { %"class.g2o::BaseFixedSizedEdge.base", ptr }
%"class.g2o::BaseFixedSizedEdge.base" = type { %"class.g2o::BaseEdge", [8 x i8], %"class.std::tuple" }
%"class.g2o::BaseEdge" = type { %"class.g2o::OptimizableGraph::Edge", %"class.Eigen::Transform", %"class.Eigen::Matrix.18", %"class.Eigen::Matrix.28" }
%"class.g2o::OptimizableGraph::Edge" = type { %"class.g2o::HyperGraph::Edge.base", %"class.g2o::HyperGraph::DataContainer", i32, i32, ptr, i64, %"class.std::vector.1", %"class.std::vector.6", %"class.std::vector.11", %"class.std::vector.1" }
%"class.g2o::HyperGraph::Edge.base" = type <{ %"struct.g2o::HyperGraph::HyperGraphElement", %"class.std::vector", i32 }>
%"struct.g2o::HyperGraph::HyperGraphElement" = type { ptr }
%"class.std::vector" = type { %"struct.std::_Vector_base" }
%"struct.std::_Vector_base" = type { %"struct.std::_Vector_base<g2o::HyperGraph::Vertex *, std::allocator<g2o::HyperGraph::Vertex *>>::_Vector_impl" }
%"struct.std::_Vector_base<g2o::HyperGraph::Vertex *, std::allocator<g2o::HyperGraph::Vertex *>>::_Vector_impl" = type { %"struct.std::_Vector_base<g2o::HyperGraph::Vertex *, std::allocator<g2o::HyperGraph::Vertex *>>::_Vector_impl_data" }
%"struct.std::_Vector_base<g2o::HyperGraph::Vertex *, std::allocator<g2o::HyperGraph::Vertex *>>::_Vector_impl_data" = type { ptr, ptr, ptr }
%"class.g2o::HyperGraph::DataContainer" = type { ptr, ptr }
%"class.std::vector.6" = type { %"struct.std::_Vector_base.7" }
%"struct.std::_Vector_base.7" = type { %"struct.std::_Vector_base<std::__cxx11::basic_string<char>, std::allocator<std::__cxx11::basic_string<char>>>::_Vector_impl" }
%"struct.std::_Vector_base<std::__cxx11::basic_string<char>, std::allocator<std::__cxx11::basic_string<char>>>::_Vector_impl" = type { %"struct.std::_Vector_base<std::__cxx11::basic_string<char>, std::allocator<std::__cxx11::basic_string<char>>>::_Vector_impl_data" }
%"struct.std::_Vector_base<std::__cxx11::basic_string<char>, std::allocator<std::__cxx11::basic_string<char>>>::_Vector_impl_data" = type { ptr, ptr, ptr }
%"class.std::vector.11" = type { %"struct.std::_Vector_base.12" }
%"struct.std::_Vector_base.12" = type { %"struct.std::_Vector_base<g2o::Parameter **, std::allocator<g2o::Parameter **>>::_Vector_impl" }
%"struct.std::_Vector_base<g2o::Parameter **, std::allocator<g2o::Parameter **>>::_Vector_impl" = type { %"struct.std::_Vector_base<g2o::Parameter **, std::allocator<g2o::Parameter **>>::_Vector_impl_data" }
%"struct.std::_Vector_base<g2o::Parameter **, std::allocator<g2o::Parameter **>>::_Vector_impl_data" = type { ptr, ptr, ptr }
%"class.std::vector.1" = type { %"struct.std::_Vector_base.2" }
%"struct.std::_Vector_base.2" = type { %"struct.std::_Vector_base<int, std::allocator<int>>::_Vector_impl" }
%"struct.std::_Vector_base<int, std::allocator<int>>::_Vector_impl" = type { %"struct.std::_Vector_base<int, std::allocator<int>>::_Vector_impl_data" }
%"struct.std::_Vector_base<int, std::allocator<int>>::_Vector_impl_data" = type { ptr, ptr, ptr }
%"class.Eigen::Matrix.18" = type { %"class.Eigen::PlainObjectBase.19" }
%"class.Eigen::PlainObjectBase.19" = type { %"class.Eigen::DenseStorage.26" }
%"class.Eigen::DenseStorage.26" = type { %"struct.Eigen::internal::plain_array.27" }
%"struct.Eigen::internal::plain_array.27" = type { [36 x double] }
%"class.Eigen::Matrix.28" = type { %"class.Eigen::PlainObjectBase.29" }
%"class.Eigen::PlainObjectBase.29" = type { %"class.Eigen::DenseStorage.36" }
%"class.Eigen::DenseStorage.36" = type { %"struct.Eigen::internal::plain_array.37" }
%"struct.Eigen::internal::plain_array.37" = type { [6 x double] }
%"class.std::tuple" = type { %"struct.std::_Tuple_impl" }
%"struct.std::_Tuple_impl" = type { %"struct.std::_Head_base" }
%"struct.std::_Head_base" = type { %"class.Eigen::Map" }
%"class.Eigen::Map" = type { %"class.Eigen::MapBase.base.45", [6 x i8] }
%"class.Eigen::MapBase.base.45" = type { %"class.Eigen::MapBase.base" }
%"class.Eigen::MapBase.base" = type <{ ptr, [2 x i8] }>
%"class.std::vector.46" = type { %"struct.std::_Vector_base.47" }
%"struct.std::_Vector_base.47" = type { %"struct.std::_Vector_base<g2o::Parameter *, std::allocator<g2o::Parameter *>>::_Vector_impl" }
%"struct.std::_Vector_base<g2o::Parameter *, std::allocator<g2o::Parameter *>>::_Vector_impl" = type { %"struct.std::_Vector_base<g2o::Parameter *, std::allocator<g2o::Parameter *>>::_Vector_impl_data" }
%"struct.std::_Vector_base<g2o::Parameter *, std::allocator<g2o::Parameter *>>::_Vector_impl_data" = type { ptr, ptr, ptr }
%"class.g2o::CacheSE3Offset" = type { %"class.g2o::Cache", ptr, %"class.Eigen::Transform", %"class.Eigen::Transform", %"class.Eigen::Transform" }
%"class.g2o::Cache" = type { %"struct.g2o::HyperGraph::HyperGraphElement", i8, %"class.std::vector.46", %"class.std::vector.67", ptr }
%"class.std::vector.67" = type { %"struct.std::_Vector_base.68" }
%"struct.std::_Vector_base.68" = type { %"struct.std::_Vector_base<g2o::Cache *, std::allocator<g2o::Cache *>>::_Vector_impl" }
%"struct.std::_Vector_base<g2o::Cache *, std::allocator<g2o::Cache *>>::_Vector_impl" = type { %"struct.std::_Vector_base<g2o::Cache *, std::allocator<g2o::Cache *>>::_Vector_impl_data" }
%"struct.std::_Vector_base<g2o::Cache *, std::allocator<g2o::Cache *>>::_Vector_impl_data" = type { ptr, ptr, ptr }

; Function Attrs: mustprogress nounwind uwtable
define linkonce_odr noundef nonnull align 16 dereferenceable(128) ptr @_ZNK3g2o14CacheSE3Offset3n2wEv(ptr noundef nonnull align 16 dereferenceable(464) %0) #4 comdat align 2 {
  %2 = alloca ptr, align 8
  store ptr %0, ptr %2, align 8, !tbaa !114
  %3 = load ptr, ptr %2, align 8
  %4 = getelementptr inbounds nuw %"class.g2o::CacheSE3Offset", ptr %3, i32 0, i32 3
  ret ptr %4
}

; Function Attrs: mustprogress uwtable
define noundef zeroext i1 @_ZN3g2o12EdgeSE3Prior23setMeasurementFromStateEv(ptr noundef nonnull align 16 dereferenceable(816) %0) unnamed_addr #6 align 2 {
  %2 = alloca ptr, align 8
  store ptr %0, ptr %2, align 8, !tbaa !14
  %3 = load ptr, ptr %2, align 8
  %4 = getelementptr inbounds nuw %"class.g2o::EdgeSE3Prior", ptr %3, i32 0, i32 3
  %5 = load ptr, ptr %4, align 8, !tbaa !18
  %6 = call noundef nonnull align 16 dereferenceable(128) ptr @_ZNK3g2o14CacheSE3Offset3n2wEv(ptr noundef nonnull align 16 dereferenceable(464) %5)
  %7 = load ptr, ptr %3, align 16, !tbaa !16
  %8 = getelementptr inbounds ptr, ptr %7, i64 26
  %9 = load ptr, ptr %8, align 8
  call void %9(ptr noundef nonnull align 16 dereferenceable(816) %3, ptr noundef nonnull align 16 dereferenceable(128) %6)
  ret i1 true
}