; Function Attrs: mustprogress uwtable
define noundef zeroext i1 @_ZN3g2o12EdgeSE3Prior23setMeasurementFromStateEv(ptr noundef nonnull align 16 dereferenceable(816) %0) unnamed_addr #6 align 2 {
  %2 = getelementptr inbounds nuw i8, ptr %0, i64 808
  %3 = load ptr, ptr %2, align 8, !tbaa !107
  %4 = getelementptr inbounds nuw i8, ptr %3, i64 208
  %5 = load ptr, ptr %0, align 16, !tbaa !37
  %6 = getelementptr inbounds nuw i8, ptr %5, i64 208
  %7 = load ptr, ptr %6, align 8
  tail call void %7(ptr noundef nonnull align 16 dereferenceable(816) %0, ptr noundef nonnull align 16 dereferenceable(128) %4)
  ret i1 true
}